target datalayout = "e-m:e-p270:32:32-p271:32:32-p272:64:64-i64:64-i128:128-f80:128-n8:16:32:64-S128"
target triple = "x86_64-pc-linux-gnu"

%union.pthread_mutex_t = type { %struct.__pthread_mutex_s }
%struct.__pthread_mutex_s = type { i32, i32, i32, i32, i32, i16, i16, %struct.__pthread_internal_list }
%struct.__pthread_internal_list = type { ptr, ptr }
%struct.slurm_conf_t = type { i64, ptr, i16, ptr, ptr, ptr, ptr, ptr, i16, ptr, ptr, ptr, ptr, ptr, ptr, ptr, i16, ptr, ptr, ptr, ptr, i16, ptr, ptr, ptr, i64, ptr, ptr, ptr, ptr, i16, ptr, ptr, i16, i32, ptr, i32, ptr, i32, i32, ptr, ptr, i64, i64, ptr, i16, i16, ptr, i32, i32, ptr, i32, ptr, i32, i16, i16, i16, ptr, i16, i16, ptr, ptr, i32, i16, i16, ptr, i32, i16, ptr, ptr, ptr, ptr, i16, ptr, ptr, ptr, ptr, i32, ptr, ptr, ptr, ptr, i16, i16, ptr, i32, i32, i32, i16, i16, ptr, ptr, i16, ptr, ptr, i32, i32, i32, i32, i32, i64, i32, i32, i16, ptr, ptr, i32, ptr, ptr, ptr, i16, i32, ptr, ptr, i16, ptr, ptr, i32, i16, ptr, ptr, ptr, ptr, i32, i32, i16, i16, i32, ptr, i16, ptr, i32, i32, i32, i32, i32, i32, ptr, i16, ptr, ptr, i32, i16, ptr, i32, i16, i16, ptr, ptr, ptr, i16, ptr, ptr, ptr, ptr, i16, i16, ptr, i16, ptr, i16, ptr, i16, ptr, i16, ptr, ptr, ptr, ptr, i16, ptr, ptr, ptr, i32, ptr, i32, ptr, ptr, i16, ptr, ptr, i32, i16, ptr, ptr, i16, i16, ptr, i16, ptr, ptr, ptr, i32, ptr, i16, i16, ptr, ptr, ptr, ptr, ptr, ptr, ptr, ptr, i16, i32, i16, ptr, ptr, ptr, ptr, i32, ptr, ptr, ptr, i16, ptr, ptr, ptr, i16, ptr, i16, ptr, i16, i16, ptr }
%struct.slurm_acct_gather_interconnect_ops = type { ptr, ptr, ptr, ptr, ptr }

@.str = private unnamed_addr constant [25 x i8] c"acct_gather_interconnect\00", align 1
@g_context_lock = internal global %union.pthread_mutex_t zeroinitializer, align 8
@.str.1 = private unnamed_addr constant [29 x i8] c"%s: pthread_mutex_lock(): %m\00", align 1
@__func__.acct_gather_interconnect_init = private unnamed_addr constant [30 x i8] c"acct_gather_interconnect_init\00", align 1
@g_context_num = internal global i32 -1, align 4
@slurm_conf = external global %struct.slurm_conf_t, align 8
@init_run = internal global i8 0, align 1
@.str.2 = private unnamed_addr constant [2 x i8] c",\00", align 1
@ops = internal global ptr null, align 8
@.str.3 = private unnamed_addr constant [27 x i8] c"acct_gather_interconnect.c\00", align 1
@g_context = internal global ptr null, align 8
@.str.4 = private unnamed_addr constant [26 x i8] c"acct_gather_interconnect/\00", align 1
@.str.5 = private unnamed_addr constant [6 x i8] c"%s/%s\00", align 1
@syms = internal global [5 x ptr] [ptr @.str.20, ptr @.str.21, ptr @.str.22, ptr @.str.23, ptr @.str.24], align 16
@.str.6 = private unnamed_addr constant [32 x i8] c"cannot create %s context for %s\00", align 1
@.str.7 = private unnamed_addr constant [31 x i8] c"%s: pthread_mutex_unlock(): %m\00", align 1
@.str.8 = private unnamed_addr constant [27 x i8] c"can not open the %s plugin\00", align 1

; Function Attrs: nounwind uwtable
define dso_local i32 @acct_gather_interconnect_init() #0 {
  %1 = alloca i32, align 4
  %2 = alloca ptr, align 8
  %3 = alloca ptr, align 8
  %4 = alloca ptr, align 8
  %5 = alloca ptr, align 8
  %6 = alloca ptr, align 8
  %7 = alloca i32, align 4
  %8 = alloca i32, align 4
  call void @llvm.lifetime.start.p0(i64 4, ptr %1) #6
  store i32 0, ptr %1, align 4
  call void @llvm.lifetime.start.p0(i64 8, ptr %2) #6
  store ptr @.str, ptr %2, align 8
  call void @llvm.lifetime.start.p0(i64 8, ptr %3) #6
  store ptr null, ptr %3, align 8
  call void @llvm.lifetime.start.p0(i64 8, ptr %4) #6
  store ptr null, ptr %4, align 8
  call void @llvm.lifetime.start.p0(i64 8, ptr %5) #6
  call void @llvm.lifetime.start.p0(i64 8, ptr %6) #6
  store ptr null, ptr %6, align 8
  br label %9

9:                                                ; preds = %0
  call void @llvm.lifetime.start.p0(i64 4, ptr %7) #6
  %10 = call i32 @pthread_mutex_lock(ptr noundef @g_context_lock) #6
  store i32 %10, ptr %7, align 4
  %11 = load i32, ptr %7, align 4
  %12 = icmp ne i32 %11, 0
  br i1 %12, label %13, label %16

13:                                               ; preds = %9
  %14 = load i32, ptr %7, align 4
  %15 = call ptr @__errno_location() #7
  store i32 %14, ptr %15, align 4
  call void (ptr, ...) @fatal_abort(ptr noundef @.str.1, ptr noundef @__func__.acct_gather_interconnect_init) #8
  unreachable

16:                                               ; preds = %9
  call void @llvm.lifetime.end.p0(i64 4, ptr %7) #6
  br label %17

17:                                               ; preds = %16
  br label %18

18:                                               ; preds = %17
  %19 = load i32, ptr @g_context_num, align 4
  %20 = icmp sge i32 %19, 0
  br i1 %20, label %21, label %22

21:                                               ; preds = %18
  br label %79

22:                                               ; preds = %18
  store i32 0, ptr @g_context_num, align 4
  %23 = load ptr, ptr getelementptr inbounds nuw (%struct.slurm_conf_t, ptr @slurm_conf, i32 0, i32 14), align 8
  %24 = icmp ne ptr %23, null
  br i1 %24, label %26, label %25

25:                                               ; preds = %22
  store i8 1, ptr @init_run, align 1
  br label %79

26:                                               ; preds = %22
  %27 = call ptr @slurm_get_acct_gather_interconnect_type()
  store ptr %27, ptr %3, align 8
  %28 = load ptr, ptr %3, align 8
  store ptr %28, ptr %5, align 8
  br label %29

29:                                               ; preds = %75, %26
  %30 = load ptr, ptr %5, align 8
  %31 = call ptr @strtok_r(ptr noundef %30, ptr noundef @.str.2, ptr noundef %4) #6
  store ptr %31, ptr %6, align 8
  %32 = icmp ne ptr %31, null
  br i1 %32, label %33, label %78

33:                                               ; preds = %29
  %34 = load i32, ptr @g_context_num, align 4
  %35 = add nsw i32 %34, 1
  %36 = sext i32 %35 to i64
  %37 = mul i64 40, %36
  %38 = call ptr @slurm_xrecalloc(ptr noundef @ops, i64 noundef 1, i64 noundef %37, i1 noundef zeroext true, i1 noundef zeroext false, ptr noundef @.str.3, i32 noundef 142, ptr noundef @__func__.acct_gather_interconnect_init)
  %39 = load i32, ptr @g_context_num, align 4
  %40 = add nsw i32 %39, 1
  %41 = sext i32 %40 to i64
  %42 = mul i64 8, %41
  %43 = call ptr @slurm_xrecalloc(ptr noundef @g_context, i64 noundef 1, i64 noundef %42, i1 noundef zeroext true, i1 noundef zeroext false, ptr noundef @.str.3, i32 noundef 144, ptr noundef @__func__.acct_gather_interconnect_init)
  %44 = load ptr, ptr %6, align 8
  %45 = call i32 @xstrncmp(ptr noundef %44, ptr noundef @.str.4, i64 noundef 25)
  %46 = icmp eq i32 %45, 0
  br i1 %46, label %47, label %50

47:                                               ; preds = %33
  %48 = load ptr, ptr %6, align 8
  %49 = getelementptr inbounds i8, ptr %48, i64 25
  store ptr %49, ptr %6, align 8
  br label %50

50:                                               ; preds = %47, %33
  %51 = load ptr, ptr %2, align 8
  %52 = load ptr, ptr %6, align 8
  %53 = call ptr (ptr, ...) @xstrdup_printf(ptr noundef @.str.5, ptr noundef %51, ptr noundef %52)
  store ptr %53, ptr %6, align 8
  %54 = load ptr, ptr %2, align 8
  %55 = load ptr, ptr %6, align 8
  %56 = load ptr, ptr @ops, align 8
  %57 = load i32, ptr @g_context_num, align 4
  %58 = sext i32 %57 to i64
  %59 = getelementptr inbounds %struct.slurm_acct_gather_interconnect_ops, ptr %56, i64 %58
  %60 = call ptr @plugin_context_create(ptr noundef %54, ptr noundef %55, ptr noundef %59, ptr noundef @syms, i64 noundef 40)
  %61 = load ptr, ptr @g_context, align 8
  %62 = load i32, ptr @g_context_num, align 4
  %63 = sext i32 %62 to i64
  %64 = getelementptr inbounds ptr, ptr %61, i64 %63
  store ptr %60, ptr %64, align 8
  %65 = load ptr, ptr @g_context, align 8
  %66 = load i32, ptr @g_context_num, align 4
  %67 = sext i32 %66 to i64
  %68 = getelementptr inbounds ptr, ptr %65, i64 %67
  %69 = load ptr, ptr %68, align 8
  %70 = icmp ne ptr %69, null
  br i1 %70, label %75, label %71

71:                                               ; preds = %50
  %72 = load ptr, ptr %2, align 8
  %73 = load ptr, ptr %6, align 8
  %74 = call i32 (ptr, ...) @error(ptr noundef @.str.6, ptr noundef %72, ptr noundef %73)
  call void @slurm_xfree(ptr noundef %6)
  store i32 -1, ptr %1, align 4
  br label %78

75:                                               ; preds = %50
  call void @slurm_xfree(ptr noundef %6)
  %76 = load i32, ptr @g_context_num, align 4
  %77 = add nsw i32 %76, 1
  store i32 %77, ptr @g_context_num, align 4
  store ptr null, ptr %5, align 8
  br label %29, !llvm.loop !8

78:                                               ; preds = %71, %29
  call void @slurm_xfree(ptr noundef %3)
  store i8 1, ptr @init_run, align 1
  br label %79

79:                                               ; preds = %78, %25, %21
  br label %80

80:                                               ; preds = %79
  call void @llvm.lifetime.start.p0(i64 4, ptr %8) #6
  %81 = call i32 @pthread_mutex_unlock(ptr noundef @g_context_lock) #6
  store i32 %81, ptr %8, align 4
  %82 = load i32, ptr %8, align 4
  %83 = icmp ne i32 %82, 0
  br i1 %83, label %84, label %87

84:                                               ; preds = %80
  %85 = load i32, ptr %8, align 4
  %86 = call ptr @__errno_location() #7
  store i32 %85, ptr %86, align 4
  call void (ptr, ...) @fatal_abort(ptr noundef @.str.7, ptr noundef @__func__.acct_gather_interconnect_init) #8
  unreachable

87:                                               ; preds = %80
  call void @llvm.lifetime.end.p0(i64 4, ptr %8) #6
  br label %88

88:                                               ; preds = %87
  br label %89

89:                                               ; preds = %88
  %90 = load i32, ptr %1, align 4
  %91 = icmp ne i32 %90, 0
  br i1 %91, label %92, label %94

92:                                               ; preds = %89
  %93 = load ptr, ptr %2, align 8
  call void (ptr, ...) @fatal(ptr noundef @.str.8, ptr noundef %93) #8
  unreachable

94:                                               ; preds = %89
  call void @slurm_xfree(ptr noundef %6)
  %95 = load i32, ptr %1, align 4
  call void @llvm.lifetime.end.p0(i64 8, ptr %6) #6
  call void @llvm.lifetime.end.p0(i64 8, ptr %5) #6
  call void @llvm.lifetime.end.p0(i64 8, ptr %4) #6
  call void @llvm.lifetime.end.p0(i64 8, ptr %3) #6
  call void @llvm.lifetime.end.p0(i64 8, ptr %2) #6
  call void @llvm.lifetime.end.p0(i64 4, ptr %1) #6
  ret i32 %95
}