; Function Attrs: nounwind uwtable
define dso_local noundef i32 @acct_gather_interconnect_init() local_unnamed_addr #0 {
  %1 = alloca ptr, align 8
  %2 = alloca ptr, align 8
  %3 = alloca ptr, align 8
  call void @llvm.lifetime.start.p0(i64 8, ptr nonnull %1) #7
  store ptr null, ptr %1, align 8
  call void @llvm.lifetime.start.p0(i64 8, ptr nonnull %2) #7
  store ptr null, ptr %2, align 8
  call void @llvm.lifetime.start.p0(i64 8, ptr nonnull %3) #7
  store ptr null, ptr %3, align 8
  %4 = tail call i32 @pthread_mutex_lock(ptr noundef nonnull @g_context_lock) #7
  %.not = icmp eq i32 %4, 0
  br i1 %.not, label %7, label %5

5:                                                ; preds = %0
  %6 = tail call ptr @__errno_location() #8
  store i32 %4, ptr %6, align 4
  tail call void (ptr, ...) @fatal_abort(ptr noundef nonnull @.str.1, ptr noundef nonnull @__func__.acct_gather_interconnect_init) #9
  unreachable

7:                                                ; preds = %0
  %8 = load i32, ptr @g_context_num, align 4
  %9 = icmp sgt i32 %8, -1
  br i1 %9, label %52, label %10

10:                                               ; preds = %7
  store i32 0, ptr @g_context_num, align 4
  %11 = load ptr, ptr getelementptr inbounds nuw (i8, ptr @slurm_conf, i64 112), align 8
  %.not13 = icmp eq ptr %11, null
  br i1 %.not13, label %.sink.split, label %12

12:                                               ; preds = %10
  %13 = tail call ptr @slurm_get_acct_gather_interconnect_type() #7
  store ptr %13, ptr %1, align 8
  %14 = call ptr @strtok_r(ptr noundef %13, ptr noundef nonnull @.str.2, ptr noundef nonnull %2) #7
  store ptr %14, ptr %3, align 8
  %.not1420 = icmp eq ptr %14, null
  br i1 %.not1420, label %.loopexit, label %.lr.ph

.lr.ph:                                           ; preds = %12, %48
  %15 = load i32, ptr @g_context_num, align 4
  %16 = add nsw i32 %15, 1
  %17 = sext i32 %16 to i64
  %18 = mul nsw i64 %17, 40
  %19 = call ptr @slurm_xrecalloc(ptr noundef nonnull @ops, i64 noundef 1, i64 noundef %18, i1 noundef zeroext true, i1 noundef zeroext false, ptr noundef nonnull @.str.3, i32 noundef 142, ptr noundef nonnull @__func__.acct_gather_interconnect_init) #7
  %20 = load i32, ptr @g_context_num, align 4
  %21 = add nsw i32 %20, 1
  %22 = sext i32 %21 to i64
  %23 = shl nsw i64 %22, 3
  %24 = call ptr @slurm_xrecalloc(ptr noundef nonnull @g_context, i64 noundef 1, i64 noundef %23, i1 noundef zeroext true, i1 noundef zeroext false, ptr noundef nonnull @.str.3, i32 noundef 144, ptr noundef nonnull @__func__.acct_gather_interconnect_init) #7
  %25 = load ptr, ptr %3, align 8
  %26 = call i32 @xstrncmp(ptr noundef %25, ptr noundef nonnull @.str.4, i64 noundef 25) #7
  %27 = icmp eq i32 %26, 0
  %.pre = load ptr, ptr %3, align 8
  br i1 %27, label %28, label %30

28:                                               ; preds = %.lr.ph
  %29 = getelementptr inbounds nuw i8, ptr %.pre, i64 25
  store ptr %29, ptr %3, align 8
  br label %30

30:                                               ; preds = %28, %.lr.ph
  %31 = phi ptr [ %29, %28 ], [ %.pre, %.lr.ph ]
  %32 = call ptr (ptr, ...) @xstrdup_printf(ptr noundef nonnull @.str.5, ptr noundef nonnull @.str, ptr noundef %31) #7
  store ptr %32, ptr %3, align 8
  %33 = load ptr, ptr @ops, align 8
  %34 = load i32, ptr @g_context_num, align 4
  %35 = sext i32 %34 to i64
  %36 = getelementptr inbounds %struct.slurm_acct_gather_interconnect_ops, ptr %33, i64 %35
  %37 = call ptr @plugin_context_create(ptr noundef nonnull @.str, ptr noundef %32, ptr noundef %36, ptr noundef nonnull @syms, i64 noundef 40) #7
  %38 = load ptr, ptr @g_context, align 8
  %39 = load i32, ptr @g_context_num, align 4
  %40 = sext i32 %39 to i64
  %41 = getelementptr inbounds ptr, ptr %38, i64 %40
  store ptr %37, ptr %41, align 8
  %42 = load ptr, ptr @g_context, align 8
  %43 = getelementptr inbounds ptr, ptr %42, i64 %40
  %44 = load ptr, ptr %43, align 8
  %.not15 = icmp eq ptr %44, null
  br i1 %.not15, label %45, label %48

45:                                               ; preds = %30
  %46 = load ptr, ptr %3, align 8
  %47 = call i32 (ptr, ...) @error(ptr noundef nonnull @.str.6, ptr noundef nonnull @.str, ptr noundef %46) #7
  call void @slurm_xfree(ptr noundef nonnull %3) #7
  br label %.loopexit

48:                                               ; preds = %30
  call void @slurm_xfree(ptr noundef nonnull %3) #7
  %49 = load i32, ptr @g_context_num, align 4
  %50 = add nsw i32 %49, 1
  store i32 %50, ptr @g_context_num, align 4
  %51 = call ptr @strtok_r(ptr noundef null, ptr noundef nonnull @.str.2, ptr noundef nonnull %2) #7
  store ptr %51, ptr %3, align 8
  %.not14 = icmp eq ptr %51, null
  br i1 %.not14, label %.loopexit, label %.lr.ph, !llvm.loop !8

.loopexit:                                        ; preds = %48, %12, %45
  %.not1419 = phi i1 [ false, %45 ], [ true, %12 ], [ true, %48 ]
  call void @slurm_xfree(ptr noundef nonnull %1) #7
  br label %.sink.split

.sink.split:                                      ; preds = %10, %.loopexit
  %.1.ph = phi i1 [ %.not1419, %.loopexit ], [ true, %10 ]
  store i1 true, ptr @init_run, align 1
  br label %52

52:                                               ; preds = %.sink.split, %7
  %.1 = phi i1 [ true, %7 ], [ %.1.ph, %.sink.split ]
  %53 = call i32 @pthread_mutex_unlock(ptr noundef nonnull @g_context_lock) #7
  %.not16 = icmp eq i32 %53, 0
  br i1 %.not16, label %56, label %54

54:                                               ; preds = %52
  %55 = tail call ptr @__errno_location() #8
  store i32 %53, ptr %55, align 4
  call void (ptr, ...) @fatal_abort(ptr noundef nonnull @.str.7, ptr noundef nonnull @__func__.acct_gather_interconnect_init) #9
  unreachable

56:                                               ; preds = %52
  br i1 %.1, label %58, label %57

57:                                               ; preds = %56
  call void (ptr, ...) @fatal(ptr noundef nonnull @.str.8, ptr noundef nonnull @.str) #9
  unreachable

58:                                               ; preds = %56
  call void @slurm_xfree(ptr noundef nonnull %3) #7
  call void @llvm.lifetime.end.p0(i64 8, ptr nonnull %3) #7
  call void @llvm.lifetime.end.p0(i64 8, ptr nonnull %2) #7
  call void @llvm.lifetime.end.p0(i64 8, ptr nonnull %1) #7
  ret i32 0
}